; Function Attrs: mustprogress sspstrong uwtable
define internal void @_ZL33__itt_model_lock_acquire_init_3_0Pv(ptr noundef %0) #0 {
  %2 = load volatile i64, ptr getelementptr inbounds nuw (i8, ptr @__itt__ittapi_global, i64 32), align 8, !tbaa !3
  %3 = icmp eq i64 %2, 0
  %4 = load ptr, ptr getelementptr inbounds nuw (i8, ptr @__itt__ittapi_global, i64 136), align 8
  %5 = icmp eq ptr %4, null
  %or.cond = select i1 %3, i1 %5, i1 false
  br i1 %or.cond, label %6, label %7

6:                                                ; preds = %1
  tail call void @ITT_DoOneTimeInitialization()
  br label %7

7:                                                ; preds = %6, %1
  %8 = load ptr, ptr @__itt_model_lock_acquire_ptr__3_0, align 8, !tbaa !21
  %9 = icmp ne ptr %8, null
  %10 = icmp ne ptr %8, @_ZL33__itt_model_lock_acquire_init_3_0Pv
  %or.cond3 = and i1 %9, %10
  br i1 %or.cond3, label %11, label %12

11:                                               ; preds = %7
  tail call void %8(ptr noundef %0)
  br label %12

12:                                               ; preds = %7, %11
  ret void
}